; ModuleID = '49/1299.cpp'
source_filename = "49/1299.cpp"
target datalayout = "e-m:e-p270:32:32-p271:32:32-p272:64:64-i64:64-f80:128-n8:16:32:64-S128"
target triple = "x86_64-pc-linux-gnu"

%"class.std::ios_base::Init" = type { i8 }
%"class.std::basic_istream" = type { i32 (...)**, i64, %"class.std::basic_ios" }
%"class.std::basic_ios" = type { %"class.std::ios_base", %"class.std::basic_ostream"*, i8, i8, %"class.std::basic_streambuf"*, %"class.std::ctype"*, %"class.std::num_put"*, %"class.std::num_get"* }
%"class.std::ios_base" = type { i32 (...)**, i64, i64, i32, i32, i32, %"struct.std::ios_base::_Callback_list"*, %"struct.std::ios_base::_Words", [8 x %"struct.std::ios_base::_Words"], i32, %"struct.std::ios_base::_Words"*, %"class.std::locale" }
%"struct.std::ios_base::_Callback_list" = type { %"struct.std::ios_base::_Callback_list"*, void (i32, %"class.std::ios_base"*, i32)*, i32, i32 }
%"struct.std::ios_base::_Words" = type { i8*, i64 }
%"class.std::locale" = type { %"class.std::locale::_Impl"* }
%"class.std::locale::_Impl" = type { i32, %"class.std::locale::facet"**, i64, %"class.std::locale::facet"**, i8** }
%"class.std::locale::facet" = type <{ i32 (...)**, i32, [4 x i8] }>
%"class.std::basic_ostream" = type { i32 (...)**, %"class.std::basic_ios" }
%"class.std::basic_streambuf" = type { i32 (...)**, i8*, i8*, i8*, i8*, i8*, i8*, %"class.std::locale" }
%"class.std::ctype" = type <{ %"class.std::locale::facet.base", [4 x i8], %struct.__locale_struct*, i8, [7 x i8], i32*, i32*, i16*, i8, [256 x i8], [256 x i8], i8, [6 x i8] }>
%"class.std::locale::facet.base" = type <{ i32 (...)**, i32 }>
%struct.__locale_struct = type { [13 x %struct.__locale_data*], i16*, i32*, i32*, [13 x i8*] }
%struct.__locale_data = type opaque
%"class.std::num_put" = type { %"class.std::locale::facet.base", [4 x i8] }
%"class.std::num_get" = type { %"class.std::locale::facet.base", [4 x i8] }

@_ZStL8__ioinit = internal global %"class.std::ios_base::Init" zeroinitializer, align 1
@__dso_handle = external hidden global i8
@_ZSt3cin = external dso_local global %"class.std::basic_istream", align 8
@_ZSt4cout = external dso_local global %"class.std::basic_ostream", align 8
@llvm.global_ctors = appending global [1 x { i32, void ()*, i8* }] [{ i32, void ()*, i8* } { i32 65535, void ()* @_GLOBAL__sub_I_1299.cpp, i8* null }]

; Function Attrs: noinline uwtable
define internal void @__cxx_global_var_init() #0 section ".text.startup" {
  call void @_ZNSt8ios_base4InitC1Ev(%"class.std::ios_base::Init"* @_ZStL8__ioinit)
  %1 = call i32 @__cxa_atexit(void (i8*)* bitcast (void (%"class.std::ios_base::Init"*)* @_ZNSt8ios_base4InitD1Ev to void (i8*)*), i8* getelementptr inbounds (%"class.std::ios_base::Init", %"class.std::ios_base::Init"* @_ZStL8__ioinit, i32 0, i32 0), i8* @__dso_handle) #3
  ret void
}

declare dso_local void @_ZNSt8ios_base4InitC1Ev(%"class.std::ios_base::Init"*) unnamed_addr #1

; Function Attrs: nounwind
declare dso_local void @_ZNSt8ios_base4InitD1Ev(%"class.std::ios_base::Init"*) unnamed_addr #2

; Function Attrs: nounwind
declare dso_local i32 @__cxa_atexit(void (i8*)*, i8*, i8*) #3

; Function Attrs: noinline norecurse uwtable
define dso_local i32 @main() #4 {
  %1 = alloca i32, align 4
  %2 = alloca [501 x i8], align 16
  %3 = alloca i32, align 4
  %4 = alloca i8*, align 8
  %5 = alloca i64, align 8
  %6 = alloca i32, align 4
  %7 = alloca i32, align 4
  %8 = alloca i32, align 4
  %9 = alloca i32, align 4
  %10 = alloca i32, align 4
  %11 = alloca i32, align 4
  %12 = alloca i32, align 4
  store i32 0, i32* %1, align 4
  %13 = getelementptr inbounds [501 x i8], [501 x i8]* %2, i64 0, i64 0
  %14 = call dereferenceable(280) %"class.std::basic_istream"* @_ZStrsIcSt11char_traitsIcEERSt13basic_istreamIT_T0_ES6_PS3_(%"class.std::basic_istream"* dereferenceable(280) @_ZSt3cin, i8* %13)
  %15 = getelementptr inbounds [501 x i8], [501 x i8]* %2, i64 0, i64 0
  %16 = call i64 @strlen(i8* %15) #6
  %17 = trunc i64 %16 to i32
  store i32 %17, i32* %3, align 4
  %18 = load i32, i32* %3, align 4
  %19 = zext i32 %18 to i64
  %20 = call i8* @llvm.stacksave()
  store i8* %20, i8** %4, align 8
  %21 = alloca i8, i64 %19, align 16
  store i64 %19, i64* %5, align 8
  store i32 0, i32* %8, align 4
  store i32 0, i32* %11, align 4
  store i32 2, i32* %6, align 4
  br label %22

22:                                               ; preds = %118, %0
  %23 = load i32, i32* %6, align 4
  %24 = load i32, i32* %3, align 4
  %25 = icmp slt i32 %23, %24
  br i1 %25, label %26, label %121

26:                                               ; preds = %22
  store i32 0, i32* %8, align 4
  br label %27

27:                                               ; preds = %114, %26
  %28 = load i32, i32* %8, align 4
  %29 = load i32, i32* %3, align 4
  %30 = load i32, i32* %6, align 4
  %31 = sub nsw i32 %29, %30
  %32 = add nsw i32 %31, 1
  %33 = icmp slt i32 %28, %32
  br i1 %33, label %34, label %117

34:                                               ; preds = %27
  store i32 0, i32* %11, align 4
  store i32 0, i32* %7, align 4
  br label %35

35:                                               ; preds = %49, %34
  %36 = load i32, i32* %7, align 4
  %37 = load i32, i32* %6, align 4
  %38 = icmp slt i32 %36, %37
  br i1 %38, label %39, label %52

39:                                               ; preds = %35
  %40 = load i32, i32* %8, align 4
  %41 = load i32, i32* %7, align 4
  %42 = add nsw i32 %40, %41
  %43 = sext i32 %42 to i64
  %44 = getelementptr inbounds [501 x i8], [501 x i8]* %2, i64 0, i64 %43
  %45 = load i8, i8* %44, align 1
  %46 = load i32, i32* %7, align 4
  %47 = sext i32 %46 to i64
  %48 = getelementptr inbounds i8, i8* %21, i64 %47
  store i8 %45, i8* %48, align 1
  br label %49

49:                                               ; preds = %39
  %50 = load i32, i32* %7, align 4
  %51 = add nsw i32 %50, 1
  store i32 %51, i32* %7, align 4
  br label %35

52:                                               ; preds = %35
  store i32 0, i32* %9, align 4
  %53 = load i32, i32* %6, align 4
  %54 = sub nsw i32 %53, 1
  store i32 %54, i32* %10, align 4
  br label %55

55:                                               ; preds = %75, %52
  %56 = load i32, i32* %9, align 4
  %57 = load i32, i32* %10, align 4
  %58 = icmp slt i32 %56, %57
  br i1 %58, label %59, label %80

59:                                               ; preds = %55
  %60 = load i32, i32* %9, align 4
  %61 = sext i32 %60 to i64
  %62 = getelementptr inbounds i8, i8* %21, i64 %61
  %63 = load i8, i8* %62, align 1
  %64 = sext i8 %63 to i32
  %65 = load i32, i32* %10, align 4
  %66 = sext i32 %65 to i64
  %67 = getelementptr inbounds i8, i8* %21, i64 %66
  %68 = load i8, i8* %67, align 1
  %69 = sext i8 %68 to i32
  %70 = icmp eq i32 %64, %69
  br i1 %70, label %71, label %74

71:                                               ; preds = %59
  %72 = load i32, i32* %11, align 4
  %73 = add nsw i32 %72, 1
  store i32 %73, i32* %11, align 4
  br label %74

74:                                               ; preds = %71, %59
  br label %75

75:                                               ; preds = %74
  %76 = load i32, i32* %9, align 4
  %77 = add nsw i32 %76, 1
  store i32 %77, i32* %9, align 4
  %78 = load i32, i32* %10, align 4
  %79 = add nsw i32 %78, -1
  store i32 %79, i32* %10, align 4
  br label %55

80:                                               ; preds = %55
  %81 = load i32, i32* %11, align 4
  %82 = load i32, i32* %6, align 4
  %83 = sdiv i32 %82, 2
  %84 = icmp eq i32 %81, %83
  br i1 %84, label %85, label %113

85:                                               ; preds = %80
  store i32 0, i32* %12, align 4
  br label %86

86:                                               ; preds = %109, %85
  %87 = load i32, i32* %12, align 4
  %88 = load i32, i32* %6, align 4
  %89 = icmp slt i32 %87, %88
  br i1 %89, label %90, label %112

90:                                               ; preds = %86
  %91 = load i32, i32* %12, align 4
  %92 = load i32, i32* %6, align 4
  %93 = sub nsw i32 %92, 1
  %94 = icmp eq i32 %91, %93
  br i1 %94, label %95, label %102

95:                                               ; preds = %90
  %96 = load i32, i32* %12, align 4
  %97 = sext i32 %96 to i64
  %98 = getelementptr inbounds i8, i8* %21, i64 %97
  %99 = load i8, i8* %98, align 1
  %100 = call dereferenceable(272) %"class.std::basic_ostream"* @_ZStlsISt11char_traitsIcEERSt13basic_ostreamIcT_ES5_c(%"class.std::basic_ostream"* dereferenceable(272) @_ZSt4cout, i8 signext %99)
  %101 = call dereferenceable(272) %"class.std::basic_ostream"* @_ZNSolsEPFRSoS_E(%"class.std::basic_ostream"* %100, %"class.std::basic_ostream"* (%"class.std::basic_ostream"*)* @_ZSt4endlIcSt11char_traitsIcEERSt13basic_ostreamIT_T0_ES6_)
  br label %108

102:                                              ; preds = %90
  %103 = load i32, i32* %12, align 4
  %104 = sext i32 %103 to i64
  %105 = getelementptr inbounds i8, i8* %21, i64 %104
  %106 = load i8, i8* %105, align 1
  %107 = call dereferenceable(272) %"class.std::basic_ostream"* @_ZStlsISt11char_traitsIcEERSt13basic_ostreamIcT_ES5_c(%"class.std::basic_ostream"* dereferenceable(272) @_ZSt4cout, i8 signext %106)
  br label %108

108:                                              ; preds = %102, %95
  br label %109

109:                                              ; preds = %108
  %110 = load i32, i32* %12, align 4
  %111 = add nsw i32 %110, 1
  store i32 %111, i32* %12, align 4
  br label %86

112:                                              ; preds = %86
  br label %113

113:                                              ; preds = %112, %80
  br label %114

114:                                              ; preds = %113
  %115 = load i32, i32* %8, align 4
  %116 = add nsw i32 %115, 1
  store i32 %116, i32* %8, align 4
  br label %27

117:                                              ; preds = %27
  br label %118

118:                                              ; preds = %117
  %119 = load i32, i32* %6, align 4
  %120 = add nsw i32 %119, 1
  store i32 %120, i32* %6, align 4
  br label %22

121:                                              ; preds = %22
  store i32 0, i32* %1, align 4
  %122 = load i8*, i8** %4, align 8
  call void @llvm.stackrestore(i8* %122)
  %123 = load i32, i32* %1, align 4
  ret i32 %123
}

declare dso_local dereferenceable(280) %"class.std::basic_istream"* @_ZStrsIcSt11char_traitsIcEERSt13basic_istreamIT_T0_ES6_PS3_(%"class.std::basic_istream"* dereferenceable(280), i8*) #1

; Function Attrs: nounwind readonly
declare dso_local i64 @strlen(i8*) #5

; Function Attrs: nounwind
declare i8* @llvm.stacksave() #3

declare dso_local dereferenceable(272) %"class.std::basic_ostream"* @_ZStlsISt11char_traitsIcEERSt13basic_ostreamIcT_ES5_c(%"class.std::basic_ostream"* dereferenceable(272), i8 signext) #1

declare dso_local dereferenceable(272) %"class.std::basic_ostream"* @_ZNSolsEPFRSoS_E(%"class.std::basic_ostream"*, %"class.std::basic_ostream"* (%"class.std::basic_ostream"*)*) #1

declare dso_local dereferenceable(272) %"class.std::basic_ostream"* @_ZSt4endlIcSt11char_traitsIcEERSt13basic_ostreamIT_T0_ES6_(%"class.std::basic_ostream"* dereferenceable(272)) #1

; Function Attrs: nounwind
declare void @llvm.stackrestore(i8*) #3

; Function Attrs: noinline uwtable
define internal void @_GLOBAL__sub_I_1299.cpp() #0 section ".text.startup" {
  call void @__cxx_global_var_init()
  ret void
}


!llvm.module.flags = !{!0}
!llvm.ident = !{!1}

!0 = !{i32 1, !"wchar_size", i32 4}
!1 = !{!"clang version 10.0.0-4ubuntu1 "}
